; Function Attrs: mustprogress uwtable
define zeroext i1 @gguf_write_to_file(ptr noundef readonly captures(none) %0, ptr noundef %1, i1 noundef zeroext %2) local_unnamed_addr #2 personality ptr @__gxx_personality_v0 {
  %4 = alloca %"class.std::vector.27", align 8
  %5 = tail call ptr @ggml_fopen(ptr noundef %1, ptr noundef nonnull @.str.65)
  %.not = icmp eq ptr %5, null
  br i1 %.not, label %6, label %9

6:                                                ; preds = %3
  %7 = load ptr, ptr @stderr, align 8, !tbaa !45
  %8 = tail call i32 (ptr, ptr, ...) @fprintf(ptr noundef %7, ptr noundef nonnull @.str.66, ptr noundef nonnull @__func__.gguf_write_to_file, ptr noundef %1) #31
  br label %41

9:                                                ; preds = %3
  call void @llvm.lifetime.start.p0(i64 24, ptr nonnull %4) #29
  call void @llvm.memset.p0.i64(ptr noundef nonnull align 8 dereferenceable(24) %4, i8 0, i64 24, i1 false)
  invoke void @_Z17gguf_write_to_bufPK12gguf_contextRSt6vectorIaSaIaEEb(ptr noundef %0, ptr noundef nonnull align 8 dereferenceable(24) %4, i1 noundef zeroext %2)
          to label %10 unwind label %32

10:                                               ; preds = %9
  %11 = load ptr, ptr %4, align 8, !tbaa !98
  %12 = getelementptr inbounds nuw i8, ptr %4, i64 8
  %13 = load ptr, ptr %12, align 8, !tbaa !100
  %14 = ptrtoint ptr %13 to i64
  %15 = ptrtoint ptr %11 to i64
  %16 = sub i64 %14, %15
  %17 = call i64 @fwrite(ptr noundef %11, i64 noundef 1, i64 noundef %16, ptr noundef nonnull %5)
  %18 = load ptr, ptr %12, align 8, !tbaa !100
  %19 = load ptr, ptr %4, align 8, !tbaa !98
  %20 = ptrtoint ptr %18 to i64
  %21 = ptrtoint ptr %19 to i64
  %22 = sub i64 %20, %21
  %23 = icmp eq i64 %17, %22
  %24 = call i32 @fclose(ptr noundef nonnull %5)
  %25 = load ptr, ptr %4, align 8, !tbaa !98
  %.not.i.i.i = icmp eq ptr %25, null
  br i1 %.not.i.i.i, label %_ZNSt6vectorIaSaIaEED2Ev.exit, label %26

26:                                               ; preds = %10
  %27 = getelementptr inbounds nuw i8, ptr %4, i64 16
  %28 = load ptr, ptr %27, align 8, !tbaa !101
  %29 = ptrtoint ptr %28 to i64
  %30 = ptrtoint ptr %25 to i64
  %31 = sub i64 %29, %30
  call void @_ZdlPvm(ptr noundef nonnull %25, i64 noundef %31) #32
  br label %_ZNSt6vectorIaSaIaEED2Ev.exit

_ZNSt6vectorIaSaIaEED2Ev.exit:                    ; preds = %10, %26
  call void @llvm.lifetime.end.p0(i64 24, ptr nonnull %4) #29
  br label %41

32:                                               ; preds = %9
  %33 = landingpad { ptr, i32 }
          cleanup
  %34 = load ptr, ptr %4, align 8, !tbaa !98
  %.not.i.i.i11 = icmp eq ptr %34, null
  br i1 %.not.i.i.i11, label %_ZNSt6vectorIaSaIaEED2Ev.exit12, label %35

35:                                               ; preds = %32
  %36 = getelementptr inbounds nuw i8, ptr %4, i64 16
  %37 = load ptr, ptr %36, align 8, !tbaa !101
  %38 = ptrtoint ptr %37 to i64
  %39 = ptrtoint ptr %34 to i64
  %40 = sub i64 %38, %39
  call void @_ZdlPvm(ptr noundef nonnull %34, i64 noundef %40) #32
  br label %_ZNSt6vectorIaSaIaEED2Ev.exit12

_ZNSt6vectorIaSaIaEED2Ev.exit12:                  ; preds = %32, %35
  call void @llvm.lifetime.end.p0(i64 24, ptr nonnull %4) #29
  resume { ptr, i32 } %33

41:                                               ; preds = %_ZNSt6vectorIaSaIaEED2Ev.exit, %6
  %.0 = phi i1 [ %23, %_ZNSt6vectorIaSaIaEED2Ev.exit ], [ false, %6 ]
  ret i1 %.0
}